target datalayout = "e-m:e-p270:32:32-p271:32:32-p272:64:64-i64:64-i128:128-f80:128-n8:16:32:64-S128"
target triple = "x86_64-pc-linux-gnu"

%"class.llvm::Type" = type { ptr, i32, i32, ptr }
%"class.llvm::APFloat" = type { [8 x i8], %"union.llvm::APFloat::Storage" }
%"union.llvm::APFloat::Storage" = type { %"class.llvm::detail::DoubleAPFloat", [8 x i8] }
%"class.llvm::detail::DoubleAPFloat" = type { ptr, %"class.std::unique_ptr" }
%"class.std::unique_ptr" = type { %"struct.std::__uniq_ptr_data" }
%"struct.std::__uniq_ptr_data" = type { %"class.std::__uniq_ptr_impl" }
%"class.std::__uniq_ptr_impl" = type { %"class.std::tuple" }
%"class.std::tuple" = type { %"struct.std::_Tuple_impl" }
%"struct.std::_Tuple_impl" = type { %"struct.std::_Head_base.41" }
%"struct.std::_Head_base.41" = type { ptr }
%"class.llvm::MutableArrayRef" = type { %"class.llvm::ArrayRef.101" }
%"class.llvm::ArrayRef.101" = type { ptr, i64 }

; Function Attrs: mustprogress nounwind uwtable
define linkonce_odr hidden noundef ptr @_ZN4llvm16cast_convert_valINS_11IntegerTypeEPKNS_4TypeES4_E4doitES4_(ptr noundef %0) #0 comdat align 2 {
  %2 = alloca ptr, align 8
  store ptr %0, ptr %2, align 8
  %3 = load ptr, ptr %2, align 8
  ret ptr %3
}

; Function Attrs: mustprogress nounwind uwtable
define linkonce_odr hidden noundef i32 @_ZNK4llvm4Type15getSubclassDataEv(ptr noundef nonnull align 8 dereferenceable(24) %0) #0 comdat align 2 {
  %2 = alloca ptr, align 8
  store ptr %0, ptr %2, align 8
  %3 = load ptr, ptr %2, align 8
  %4 = getelementptr inbounds nuw %"class.llvm::Type", ptr %3, i32 0, i32 1
  %5 = load i32, ptr %4, align 8
  %6 = lshr i32 %5, 8
  ret i32 %6
}

; Function Attrs: mustprogress nounwind uwtable
define linkonce_odr hidden noundef ptr @_ZN4llvm8CastInfoINS_11IntegerTypeEPKNS_4TypeEvE6doCastERKS4_(ptr noundef nonnull align 8 dereferenceable(8) %0) #0 comdat align 2 {
  %2 = alloca ptr, align 8
  store ptr %0, ptr %2, align 8
  %3 = load ptr, ptr %2, align 8
  %4 = load ptr, ptr %3, align 8
  %5 = call noundef ptr @_ZN4llvm16cast_convert_valINS_11IntegerTypeEPKNS_4TypeES4_E4doitES4_(ptr noundef %4)
  ret ptr %5
}

; Function Attrs: mustprogress nounwind uwtable
define linkonce_odr hidden noundef zeroext i1 @_ZN4llvm7APFloat10usesLayoutINS_6detail13DoubleAPFloatEEEbRKNS_12fltSemanticsE(ptr noundef nonnull align 1 %0) #0 comdat align 2 {
  %2 = alloca ptr, align 8
  store ptr %0, ptr %2, align 8
  %3 = load ptr, ptr %2, align 8
  %4 = call noundef nonnull align 1 ptr @_ZN4llvm11APFloatBase15PPCDoubleDoubleEv() #17
  %5 = icmp eq ptr %3, %4
  ret i1 %5
}

; Function Attrs: mustprogress nounwind uwtable
define linkonce_odr hidden noundef zeroext i1 @_ZN4llvm7APFloat10usesLayoutINS_6detail9IEEEFloatEEEbRKNS_12fltSemanticsE(ptr noundef nonnull align 1 %0) #0 comdat align 2 {
  %2 = alloca ptr, align 8
  store ptr %0, ptr %2, align 8
  %3 = load ptr, ptr %2, align 8
  %4 = call noundef nonnull align 1 ptr @_ZN4llvm11APFloatBase15PPCDoubleDoubleEv() #17
  %5 = icmp ne ptr %3, %4
  ret i1 %5
}

; Function Attrs: mustprogress nounwind uwtable
define linkonce_odr hidden noundef nonnull align 1 ptr @_ZNK4llvm7APFloat12getSemanticsEv(ptr noundef nonnull align 8 dereferenceable(32) %0) #0 comdat align 2 {
  %2 = alloca ptr, align 8
  store ptr %0, ptr %2, align 8
  %3 = load ptr, ptr %2, align 8
  %4 = getelementptr inbounds nuw %"class.llvm::APFloat", ptr %3, i32 0, i32 1
  %5 = load ptr, ptr %4, align 8
  ret ptr %5
}

; Function Attrs: mustprogress nounwind uwtable
define linkonce_odr hidden void @_ZN4llvm8ArrayRefImEC2ERKm(ptr noundef nonnull align 8 dereferenceable(16) %0, ptr noundef nonnull align 8 dereferenceable(8) %1) unnamed_addr #0 comdat align 2 {
  %3 = alloca ptr, align 8
  %4 = alloca ptr, align 8
  store ptr %0, ptr %3, align 8
  store ptr %1, ptr %4, align 8
  %5 = load ptr, ptr %3, align 8
  %6 = getelementptr inbounds nuw %"class.llvm::ArrayRef.101", ptr %5, i32 0, i32 0
  %7 = load ptr, ptr %4, align 8
  store ptr %7, ptr %6, align 8
  %8 = getelementptr inbounds nuw %"class.llvm::ArrayRef.101", ptr %5, i32 0, i32 1
  store i64 1, ptr %8, align 8
  ret void
}

; Function Attrs: mustprogress nounwind uwtable
define linkonce_odr hidden noundef i32 @_ZNK4llvm11IntegerType11getBitWidthEv(ptr noundef nonnull align 8 dereferenceable(24) %0) #0 comdat align 2 {
  %2 = alloca ptr, align 8
  store ptr %0, ptr %2, align 8
  %3 = load ptr, ptr %2, align 8
  %4 = call noundef i32 @_ZNK4llvm4Type15getSubclassDataEv(ptr noundef nonnull align 8 dereferenceable(24) %3)
  ret i32 %4
}

; Function Attrs: mustprogress nounwind uwtable
define linkonce_odr hidden noundef ptr @_ZN4llvm4castINS_11IntegerTypeEKNS_4TypeEEEDcPT0_(ptr noundef %0) #0 comdat {
  %2 = alloca ptr, align 8
  store ptr %0, ptr %2, align 8
  %3 = call noundef ptr @_ZN4llvm8CastInfoINS_11IntegerTypeEPKNS_4TypeEvE6doCastERKS4_(ptr noundef nonnull align 8 dereferenceable(8) %2)
  ret ptr %3
}

; Function Attrs: mustprogress nounwind uwtable
define linkonce_odr hidden noundef i32 @_ZNK4llvm7APFloat16convertToIntegerENS_15MutableArrayRefImEEjbNS_12RoundingModeEPb(ptr noundef nonnull align 8 dereferenceable(32) %0, ptr %1, i64 %2, i32 noundef %3, i1 noundef zeroext %4, i8 noundef signext %5, ptr noundef %6) #0 comdat align 2 {
  %8 = alloca i32, align 4
  %9 = alloca %"class.llvm::MutableArrayRef", align 8
  %10 = alloca ptr, align 8
  %11 = alloca i32, align 4
  %12 = alloca i8, align 1
  %13 = alloca i8, align 1
  %14 = alloca ptr, align 8
  %15 = alloca %"class.llvm::MutableArrayRef", align 8
  %16 = alloca %"class.llvm::MutableArrayRef", align 8
  %17 = getelementptr inbounds nuw { ptr, i64 }, ptr %9, i32 0, i32 0
  store ptr %1, ptr %17, align 8
  %18 = getelementptr inbounds nuw { ptr, i64 }, ptr %9, i32 0, i32 1
  store i64 %2, ptr %18, align 8
  store ptr %0, ptr %10, align 8
  store i32 %3, ptr %11, align 4
  %19 = zext i1 %4 to i8
  store i8 %19, ptr %12, align 1
  store i8 %5, ptr %13, align 1
  store ptr %6, ptr %14, align 8
  %20 = load ptr, ptr %10, align 8
  br label %21

21:                                               ; preds = %7
  %22 = call noundef nonnull align 1 ptr @_ZNK4llvm7APFloat12getSemanticsEv(ptr noundef nonnull align 8 dereferenceable(32) %20)
  %23 = call noundef zeroext i1 @_ZN4llvm7APFloat10usesLayoutINS_6detail9IEEEFloatEEEbRKNS_12fltSemanticsE(ptr noundef nonnull align 1 %22)
  br i1 %23, label %24, label %36

24:                                               ; preds = %21
  %25 = getelementptr inbounds nuw %"class.llvm::APFloat", ptr %20, i32 0, i32 1
  call void @llvm.memcpy.p0.p0.i64(ptr align 8 %15, ptr align 8 %9, i64 16, i1 false)
  %26 = load i32, ptr %11, align 4
  %27 = load i8, ptr %12, align 1
  %28 = trunc i8 %27 to i1
  %29 = load i8, ptr %13, align 1
  %30 = load ptr, ptr %14, align 8
  %31 = getelementptr inbounds nuw { ptr, i64 }, ptr %15, i32 0, i32 0
  %32 = load ptr, ptr %31, align 8
  %33 = getelementptr inbounds nuw { ptr, i64 }, ptr %15, i32 0, i32 1
  %34 = load i64, ptr %33, align 8
  %35 = call noundef i32 @_ZNK4llvm6detail9IEEEFloat16convertToIntegerENS_15MutableArrayRefImEEjbNS_12RoundingModeEPb(ptr noundef nonnull align 8 dereferenceable(24) %25, ptr %32, i64 %34, i32 noundef %26, i1 noundef zeroext %28, i8 noundef signext %29, ptr noundef %30)
  store i32 %35, ptr %8, align 4
  br label %53

36:                                               ; preds = %21
  %37 = call noundef nonnull align 1 ptr @_ZNK4llvm7APFloat12getSemanticsEv(ptr noundef nonnull align 8 dereferenceable(32) %20)
  %38 = call noundef zeroext i1 @_ZN4llvm7APFloat10usesLayoutINS_6detail13DoubleAPFloatEEEbRKNS_12fltSemanticsE(ptr noundef nonnull align 1 %37)
  br i1 %38, label %39, label %51

39:                                               ; preds = %36
  %40 = getelementptr inbounds nuw %"class.llvm::APFloat", ptr %20, i32 0, i32 1
  call void @llvm.memcpy.p0.p0.i64(ptr align 8 %16, ptr align 8 %9, i64 16, i1 false)
  %41 = load i32, ptr %11, align 4
  %42 = load i8, ptr %12, align 1
  %43 = trunc i8 %42 to i1
  %44 = load i8, ptr %13, align 1
  %45 = load ptr, ptr %14, align 8
  %46 = getelementptr inbounds nuw { ptr, i64 }, ptr %16, i32 0, i32 0
  %47 = load ptr, ptr %46, align 8
  %48 = getelementptr inbounds nuw { ptr, i64 }, ptr %16, i32 0, i32 1
  %49 = load i64, ptr %48, align 8
  %50 = call noundef i32 @_ZNK4llvm6detail13DoubleAPFloat16convertToIntegerENS_15MutableArrayRefImEEjbNS_12RoundingModeEPb(ptr noundef nonnull align 8 dereferenceable(16) %40, ptr %47, i64 %49, i32 noundef %41, i1 noundef zeroext %43, i8 noundef signext %44, ptr noundef %45)
  store i32 %50, ptr %8, align 4
  br label %53

51:                                               ; preds = %36
  unreachable

52:                                               ; No predecessors!
  call void @llvm.trap()
  unreachable

53:                                               ; preds = %39, %24
  %54 = load i32, ptr %8, align 4
  ret i32 %54
}

; Function Attrs: mustprogress nounwind uwtable
define linkonce_odr hidden void @_ZN4llvm15MutableArrayRefImEC2ERm(ptr noundef nonnull align 8 dereferenceable(16) %0, ptr noundef nonnull align 8 dereferenceable(8) %1) unnamed_addr #0 comdat align 2 {
  %3 = alloca ptr, align 8
  %4 = alloca ptr, align 8
  store ptr %0, ptr %3, align 8
  store ptr %1, ptr %4, align 8
  %5 = load ptr, ptr %3, align 8
  %6 = load ptr, ptr %4, align 8
  call void @_ZN4llvm8ArrayRefImEC2ERKm(ptr noundef nonnull align 8 dereferenceable(16) %5, ptr noundef nonnull align 8 dereferenceable(8) %6)
  ret void
}

; Function Attrs: mustprogress nounwind uwtable
define linkonce_odr hidden noundef i32 @_ZNK4llvm4Type18getIntegerBitWidthEv(ptr noundef nonnull align 8 dereferenceable(24) %0) #0 comdat align 2 {
  %2 = alloca ptr, align 8
  store ptr %0, ptr %2, align 8
  %3 = load ptr, ptr %2, align 8
  %4 = call noundef ptr @_ZN4llvm4castINS_11IntegerTypeEKNS_4TypeEEEDcPT0_(ptr noundef %3)
  %5 = call noundef i32 @_ZNK4llvm11IntegerType11getBitWidthEv(ptr noundef nonnull align 8 dereferenceable(24) %4)
  ret i32 %5
}

; Function Attrs: mustprogress nounwind uwtable
define internal noundef ptr @_ZN12_GLOBAL__N_127ConstantFoldSSEConvertToIntERKN4llvm7APFloatEbPNS0_4TypeEb(ptr noundef nonnull align 8 dereferenceable(32) %0, i1 noundef zeroext %1, ptr noundef %2, i1 noundef zeroext %3) #0 {
  %5 = alloca ptr, align 8
  %6 = alloca ptr, align 8
  %7 = alloca i8, align 1
  %8 = alloca ptr, align 8
  %9 = alloca i8, align 1
  %10 = alloca i32, align 4
  %11 = alloca i64, align 8
  %12 = alloca i8, align 1
  %13 = alloca i8, align 1
  %14 = alloca i32, align 4
  %15 = alloca %"class.llvm::MutableArrayRef", align 8
  store ptr %0, ptr %6, align 8
  %16 = zext i1 %1 to i8
  store i8 %16, ptr %7, align 1
  store ptr %2, ptr %8, align 8
  %17 = zext i1 %3 to i8
  store i8 %17, ptr %9, align 1
  %18 = load ptr, ptr %8, align 8
  %19 = call noundef i32 @_ZNK4llvm4Type18getIntegerBitWidthEv(ptr noundef nonnull align 8 dereferenceable(24) %18)
  store i32 %19, ptr %10, align 4
  store i8 0, ptr %12, align 1
  %20 = load i8, ptr %7, align 1
  %21 = trunc i8 %20 to i1
  %22 = select i1 %21, i8 0, i8 1
  store i8 %22, ptr %13, align 1
  %23 = load ptr, ptr %6, align 8
  call void @_ZN4llvm15MutableArrayRefImEC2ERm(ptr noundef nonnull align 8 dereferenceable(16) %15, ptr noundef nonnull align 8 dereferenceable(8) %11)
  %24 = load i32, ptr %10, align 4
  %25 = load i8, ptr %9, align 1
  %26 = trunc i8 %25 to i1
  %27 = load i8, ptr %13, align 1
  %28 = getelementptr inbounds nuw { ptr, i64 }, ptr %15, i32 0, i32 0
  %29 = load ptr, ptr %28, align 8
  %30 = getelementptr inbounds nuw { ptr, i64 }, ptr %15, i32 0, i32 1
  %31 = load i64, ptr %30, align 8
  %32 = call noundef i32 @_ZNK4llvm7APFloat16convertToIntegerENS_15MutableArrayRefImEEjbNS_12RoundingModeEPb(ptr noundef nonnull align 8 dereferenceable(32) %23, ptr %29, i64 %31, i32 noundef %24, i1 noundef zeroext %26, i8 noundef signext %27, ptr noundef %12)
  store i32 %32, ptr %14, align 4
  %33 = load i32, ptr %14, align 4
  %34 = icmp ne i32 %33, 0
  br i1 %34, label %35, label %42

35:                                               ; preds = %4
  %36 = load i8, ptr %7, align 1
  %37 = trunc i8 %36 to i1
  br i1 %37, label %38, label %41

38:                                               ; preds = %35
  %39 = load i32, ptr %14, align 4
  %40 = icmp ne i32 %39, 16
  br i1 %40, label %41, label %42

41:                                               ; preds = %38, %35
  store ptr null, ptr %5, align 8
  br label %48

42:                                               ; preds = %38, %4
  %43 = load ptr, ptr %8, align 8
  %44 = load i64, ptr %11, align 8
  %45 = load i8, ptr %9, align 1
  %46 = trunc i8 %45 to i1
  %47 = call noundef ptr @_ZN4llvm11ConstantInt3getEPNS_4TypeEmb(ptr noundef %43, i64 noundef %44, i1 noundef zeroext %46)
  store ptr %47, ptr %5, align 8
  br label %48

48:                                               ; preds = %42, %41
  %49 = load ptr, ptr %5, align 8
  ret ptr %49
}