; Function Attrs: mustprogress nounwind uwtable
define internal fastcc noundef ptr @_ZN12_GLOBAL__N_127ConstantFoldSSEConvertToIntERKN4llvm7APFloatEbPNS0_4TypeEb(ptr noundef nonnull align 8 dereferenceable(32) %0, i1 noundef zeroext %1, ptr noundef %2, i1 noundef zeroext %3) unnamed_addr #0 {
  %5 = alloca i64, align 8
  %6 = alloca i8, align 1
  %7 = getelementptr inbounds nuw i8, ptr %2, i64 8
  %8 = load i32, ptr %7, align 8
  %9 = lshr i32 %8, 8
  store i8 0, ptr %6, align 1
  %not. = xor i1 %1, true
  %10 = zext i1 %not. to i8
  %11 = getelementptr inbounds nuw i8, ptr %0, i64 8
  %12 = load ptr, ptr %11, align 8
  %13 = tail call noundef nonnull align 1 ptr @_ZN4llvm11APFloatBase15PPCDoubleDoubleEv() #20
  %.not.i = icmp eq ptr %12, %13
  br i1 %.not.i, label %16, label %14

14:                                               ; preds = %4
  %15 = call noundef i32 @_ZNK4llvm6detail9IEEEFloat16convertToIntegerENS_15MutableArrayRefImEEjbNS_12RoundingModeEPb(ptr noundef nonnull align 8 dereferenceable(24) %11, ptr nonnull %5, i64 1, i32 noundef %9, i1 noundef zeroext %3, i8 noundef signext %10, ptr noundef nonnull %6) #17
  br label %_ZNK4llvm7APFloat16convertToIntegerENS_15MutableArrayRefImEEjbNS_12RoundingModeEPb.exit

16:                                               ; preds = %4
  %17 = call noundef i32 @_ZNK4llvm6detail13DoubleAPFloat16convertToIntegerENS_15MutableArrayRefImEEjbNS_12RoundingModeEPb(ptr noundef nonnull align 8 dereferenceable(16) %11, ptr nonnull %5, i64 1, i32 noundef %9, i1 noundef zeroext %3, i8 noundef signext %10, ptr noundef nonnull %6) #17
  br label %_ZNK4llvm7APFloat16convertToIntegerENS_15MutableArrayRefImEEjbNS_12RoundingModeEPb.exit

_ZNK4llvm7APFloat16convertToIntegerENS_15MutableArrayRefImEEjbNS_12RoundingModeEPb.exit: ; preds = %14, %16
  %.0.i = phi i32 [ %15, %14 ], [ %17, %16 ]
  %.not13 = icmp eq i32 %.0.i, 0
  %18 = icmp eq i32 %.0.i, 16
  %or.cond.not = and i1 %1, %18
  %or.cond = or i1 %.not13, %or.cond.not
  br i1 %or.cond, label %19, label %22

19:                                               ; preds = %_ZNK4llvm7APFloat16convertToIntegerENS_15MutableArrayRefImEEjbNS_12RoundingModeEPb.exit
  %20 = load i64, ptr %5, align 8
  %21 = call noundef ptr @_ZN4llvm11ConstantInt3getEPNS_4TypeEmb(ptr noundef nonnull %2, i64 noundef %20, i1 noundef zeroext %3) #17
  br label %22

22:                                               ; preds = %_ZNK4llvm7APFloat16convertToIntegerENS_15MutableArrayRefImEEjbNS_12RoundingModeEPb.exit, %19
  %.0 = phi ptr [ %21, %19 ], [ null, %_ZNK4llvm7APFloat16convertToIntegerENS_15MutableArrayRefImEEjbNS_12RoundingModeEPb.exit ]
  ret ptr %.0
}